target datalayout = "e-m:e-p270:32:32-p271:32:32-p272:64:64-i64:64-i128:128-f80:128-n8:16:32:64-S128"
target triple = "x86_64-pc-linux-gnu"

%struct.StringBlock = type { ptr, i32, i32 }

@stderr = external global ptr, align 8
@path = dso_local global ptr null, align 8
@lineNum = internal global i32 1, align 4
@.str.27 = private unnamed_addr constant [29 x i8] c"%s:%d: error: out of memory\0A\00", align 1
@.str.28 = private unnamed_addr constant [66 x i8] c"%s:%d: error: the name %s contains not just invariant characters\0A\00", align 1

; Function Attrs: nounwind uwtable
define internal ptr @allocString(ptr noundef %0, ptr noundef %1, i32 noundef %2) #0 {
  %4 = alloca ptr, align 8
  %5 = alloca ptr, align 8
  %6 = alloca i32, align 4
  %7 = alloca i32, align 4
  %8 = alloca ptr, align 8
  store ptr %0, ptr %4, align 8, !tbaa !47
  store ptr %1, ptr %5, align 8, !tbaa !17
  store i32 %2, ptr %6, align 4, !tbaa !4
  call void @llvm.lifetime.start.p0(i64 4, ptr %7) #11
  call void @llvm.lifetime.start.p0(i64 8, ptr %8) #11
  %9 = load i32, ptr %6, align 4, !tbaa !4
  %10 = icmp slt i32 %9, 0
  br i1 %10, label %11, label %15

11:                                               ; preds = %3
  %12 = load ptr, ptr %5, align 8, !tbaa !17
  %13 = call i64 @strlen(ptr noundef %12) #12
  %14 = trunc i64 %13 to i32
  store i32 %14, ptr %6, align 4, !tbaa !4
  br label %15

15:                                               ; preds = %11, %3
  %16 = load ptr, ptr %4, align 8, !tbaa !47
  %17 = getelementptr inbounds nuw %struct.StringBlock, ptr %16, i32 0, i32 1
  %18 = load i32, ptr %17, align 8, !tbaa !35
  %19 = load i32, ptr %6, align 4, !tbaa !4
  %20 = add nsw i32 %19, 1
  %21 = add nsw i32 %20, 1
  %22 = and i32 %21, -2
  %23 = add i32 %18, %22
  store i32 %23, ptr %7, align 4, !tbaa !4
  %24 = load i32, ptr %7, align 4, !tbaa !4
  %25 = load ptr, ptr %4, align 8, !tbaa !47
  %26 = getelementptr inbounds nuw %struct.StringBlock, ptr %25, i32 0, i32 2
  %27 = load i32, ptr %26, align 4, !tbaa !48
  %28 = icmp uge i32 %24, %27
  br i1 %28, label %29, label %34

29:                                               ; preds = %15
  %30 = load ptr, ptr @stderr, align 8, !tbaa !15
  %31 = load ptr, ptr @path, align 8, !tbaa !17
  %32 = load i32, ptr @lineNum, align 4, !tbaa !4
  %33 = call i32 (ptr, ptr, ...) @fprintf(ptr noundef %30, ptr noundef @.str.27, ptr noundef %31, i32 noundef %32) #11
  call void @exit(i32 noundef 7) #13
  unreachable

34:                                               ; preds = %15
  %35 = load ptr, ptr %4, align 8, !tbaa !47
  %36 = getelementptr inbounds nuw %struct.StringBlock, ptr %35, i32 0, i32 0
  %37 = load ptr, ptr %36, align 8, !tbaa !45
  %38 = load ptr, ptr %4, align 8, !tbaa !47
  %39 = getelementptr inbounds nuw %struct.StringBlock, ptr %38, i32 0, i32 1
  %40 = load i32, ptr %39, align 8, !tbaa !35
  %41 = zext i32 %40 to i64
  %42 = getelementptr inbounds nuw i8, ptr %37, i64 %41
  store ptr %42, ptr %8, align 8, !tbaa !17
  br label %43

43:                                               ; preds = %34
  %44 = load ptr, ptr %8, align 8, !tbaa !17
  %45 = load ptr, ptr %5, align 8, !tbaa !17
  %46 = load i32, ptr %6, align 4, !tbaa !4
  %47 = sext i32 %46 to i64
  call void @llvm.memcpy.p0.p0.i64(ptr align 1 %44, ptr align 1 %45, i64 %47, i1 false)
  br label %48

48:                                               ; preds = %43
  br label %49

49:                                               ; preds = %48
  %50 = load ptr, ptr %8, align 8, !tbaa !17
  %51 = load i32, ptr %6, align 4, !tbaa !4
  %52 = sext i32 %51 to i64
  %53 = getelementptr inbounds i8, ptr %50, i64 %52
  store i8 0, ptr %53, align 1, !tbaa !19
  %54 = load i32, ptr %6, align 4, !tbaa !4
  %55 = and i32 %54, 1
  %56 = icmp eq i32 %55, 0
  br i1 %56, label %57, label %63

57:                                               ; preds = %49
  %58 = load ptr, ptr %8, align 8, !tbaa !17
  %59 = load i32, ptr %6, align 4, !tbaa !4
  %60 = add nsw i32 %59, 1
  %61 = sext i32 %60 to i64
  %62 = getelementptr inbounds i8, ptr %58, i64 %61
  store i8 0, ptr %62, align 1, !tbaa !19
  br label %63

63:                                               ; preds = %57, %49
  %64 = load ptr, ptr %8, align 8, !tbaa !17
  %65 = load i32, ptr %6, align 4, !tbaa !4
  %66 = call signext i8 @uprv_isInvariantString_77(ptr noundef %64, i32 noundef %65)
  %67 = icmp ne i8 %66, 0
  br i1 %67, label %74, label %68

68:                                               ; preds = %63
  %69 = load ptr, ptr @stderr, align 8, !tbaa !15
  %70 = load ptr, ptr @path, align 8, !tbaa !17
  %71 = load i32, ptr @lineNum, align 4, !tbaa !4
  %72 = load ptr, ptr %8, align 8, !tbaa !17
  %73 = call i32 (ptr, ptr, ...) @fprintf(ptr noundef %69, ptr noundef @.str.28, ptr noundef %70, i32 noundef %71, ptr noundef %72) #11
  call void @exit(i32 noundef 13) #13
  unreachable

74:                                               ; preds = %63
  %75 = load i32, ptr %7, align 4, !tbaa !4
  %76 = load ptr, ptr %4, align 8, !tbaa !47
  %77 = getelementptr inbounds nuw %struct.StringBlock, ptr %76, i32 0, i32 1
  store i32 %75, ptr %77, align 8, !tbaa !35
  %78 = load ptr, ptr %8, align 8, !tbaa !17
  call void @llvm.lifetime.end.p0(i64 8, ptr %8) #11
  call void @llvm.lifetime.end.p0(i64 4, ptr %7) #11
  ret ptr %78
}