; Function Attrs: nounwind uwtable
define internal fastcc ptr @allocString(ptr noundef captures(none) %0, ptr noundef readonly captures(none) %1, i32 noundef range(i32 -1, 65536) %2) unnamed_addr #0 {
  %4 = icmp slt i32 %2, 0
  br i1 %4, label %5, label %8

5:                                                ; preds = %3
  %6 = tail call i64 @strlen(ptr noundef nonnull dereferenceable(1) %1) #18
  %7 = trunc i64 %6 to i32
  br label %8

8:                                                ; preds = %5, %3
  %.0 = phi i32 [ %7, %5 ], [ %2, %3 ]
  %9 = getelementptr inbounds nuw i8, ptr %0, i64 8
  %10 = load i32, ptr %9, align 8, !tbaa !24
  %11 = and i32 %.0, -2
  %12 = add nsw i32 %11, 2
  %13 = add i32 %12, %10
  %14 = getelementptr inbounds nuw i8, ptr %0, i64 12
  %15 = load i32, ptr %14, align 4, !tbaa !26
  %.not = icmp ult i32 %13, %15
  br i1 %.not, label %21, label %16

16:                                               ; preds = %8
  %17 = load ptr, ptr @stderr, align 8, !tbaa !12
  %18 = load ptr, ptr @path, align 8, !tbaa !14
  %19 = load i32, ptr @lineNum, align 4, !tbaa !4
  %20 = tail call i32 (ptr, ptr, ...) @fprintf(ptr noundef %17, ptr noundef nonnull @.str.27, ptr noundef %18, i32 noundef %19) #17
  tail call void @exit(i32 noundef 7) #19
  unreachable

21:                                               ; preds = %8
  %22 = load ptr, ptr %0, align 8, !tbaa !27
  %23 = zext i32 %10 to i64
  %24 = getelementptr inbounds nuw i8, ptr %22, i64 %23
  %25 = sext i32 %.0 to i64
  tail call void @llvm.memcpy.p0.p0.i64(ptr align 1 %24, ptr align 1 %1, i64 %25, i1 false)
  %26 = getelementptr inbounds i8, ptr %24, i64 %25
  store i8 0, ptr %26, align 1, !tbaa !16
  %27 = and i32 %.0, 1
  %28 = icmp eq i32 %27, 0
  br i1 %28, label %29, label %31

29:                                               ; preds = %21
  %30 = getelementptr i8, ptr %26, i64 1
  store i8 0, ptr %30, align 1, !tbaa !16
  br label %31

31:                                               ; preds = %29, %21
  %32 = tail call signext i8 @uprv_isInvariantString_77(ptr noundef nonnull %24, i32 noundef %.0) #16
  %.not23 = icmp eq i8 %32, 0
  br i1 %.not23, label %33, label %38

33:                                               ; preds = %31
  %34 = load ptr, ptr @stderr, align 8, !tbaa !12
  %35 = load ptr, ptr @path, align 8, !tbaa !14
  %36 = load i32, ptr @lineNum, align 4, !tbaa !4
  %37 = tail call i32 (ptr, ptr, ...) @fprintf(ptr noundef %34, ptr noundef nonnull @.str.28, ptr noundef %35, i32 noundef %36, ptr noundef nonnull %24) #17
  tail call void @exit(i32 noundef 13) #19
  unreachable

38:                                               ; preds = %31
  store i32 %13, ptr %9, align 8, !tbaa !24
  ret ptr %24
}